; Function Attrs: inlinehint mustprogress optsize uwtable
define internal noundef ptr @"_ZZN8nanobind6detail11func_createILb0ELb1EZL28nanobind_init_test_eigen_extRNS_7module_EE4$_34N5Eigen12SparseMatrixIfLi1EiEEJETpTnmJEJNS_5scopeENS_4nameEEEEP7_objectOT1_PFT2_DpT3_ESt16integer_sequenceImJXspT4_EEEDpRKT5_ENUlPvPSB_PhNS_9rv_policyEPNS0_12cleanup_listEE_8__invokeESP_SQ_SR_SS_SU_"(ptr noundef %0, ptr readnone captures(none) %1, ptr readnone captures(none) %2, i32 noundef %3, ptr noundef %4) #18 align 2 personality ptr @__gxx_personality_v0 {
  %6 = alloca %"class.Eigen::SparseView", align 8
  %7 = alloca %"class.Eigen::SparseMatrix", align 8
  call void @llvm.lifetime.start.p0(i64 72, ptr nonnull %7) #32
  tail call void @llvm.experimental.noalias.scope.decl(metadata !643)
  call void @llvm.lifetime.start.p0(i64 24, ptr nonnull %6) #32, !noalias !643
  store i8 0, ptr %6, align 8, !tbaa !646, !noalias !643
  %8 = getelementptr inbounds nuw i8, ptr %6, i64 8
  store ptr %0, ptr %8, align 8, !tbaa !648, !noalias !643
  %9 = getelementptr inbounds nuw i8, ptr %6, i64 16
  store float 0.000000e+00, ptr %9, align 8, !tbaa !650, !noalias !643
  %10 = getelementptr inbounds nuw i8, ptr %6, i64 20
  store float 0x3EE4F8B580000000, ptr %10, align 4, !tbaa !652, !noalias !643
  store i8 0, ptr %7, align 8, !tbaa !653, !alias.scope !643
  %11 = getelementptr inbounds nuw i8, ptr %7, i64 8
  call void @llvm.memset.p0.i64(ptr noundef nonnull align 8 dereferenceable(64) %11, i8 0, i64 64, i1 false), !alias.scope !643
  %12 = invoke noundef nonnull align 8 dereferenceable(72) ptr @_ZN5Eigen12SparseMatrixIfLi1EiEaSINS_10SparseViewINS_6MatrixIfLin1ELin1ELi0ELin1ELin1EEEEEEERS1_RKNS_16SparseMatrixBaseIT_EE(ptr noundef nonnull align 8 dereferenceable(72) %7, ptr noundef nonnull align 1 dereferenceable(1) %6) #31
          to label %"_ZZL28nanobind_init_test_eigen_extRN8nanobind7module_EENK4$_34clEv.exit" unwind label %13

13:                                               ; preds = %5
  %14 = landingpad { ptr, i32 }
          cleanup
  %15 = getelementptr inbounds nuw i8, ptr %7, i64 40
  call void @_ZN5Eigen8internal17CompressedStorageIfiED2Ev(ptr noundef nonnull align 8 dereferenceable(32) %15) #33
  resume { ptr, i32 } %14

"_ZZL28nanobind_init_test_eigen_extRN8nanobind7module_EENK4$_34clEv.exit": ; preds = %5
  call void @llvm.lifetime.end.p0(i64 24, ptr nonnull %6) #32, !noalias !643
  %or.cond.i = icmp ult i32 %3, 2
  %spec.store.select.i = select i1 %or.cond.i, i32 4, i32 %3
  %16 = call ptr @_ZN8nanobind6detail11type_casterIN5Eigen12SparseMatrixIfLi1EiEEiE8from_cppERKS4_NS_9rv_policyEPNS0_12cleanup_listE(ptr noundef nonnull align 8 dereferenceable(72) %7, i32 noundef %spec.store.select.i, ptr noundef %4) #33
  %17 = getelementptr inbounds nuw i8, ptr %7, i64 24
  %18 = load ptr, ptr %17, align 8, !tbaa !655
  call void @free(ptr noundef %18) #33
  %19 = getelementptr inbounds nuw i8, ptr %7, i64 32
  %20 = load ptr, ptr %19, align 8, !tbaa !659
  call void @free(ptr noundef %20) #33
  %21 = getelementptr inbounds nuw i8, ptr %7, i64 40
  call void @_ZN5Eigen8internal17CompressedStorageIfiED2Ev(ptr noundef nonnull align 8 dereferenceable(32) %21) #33
  call void @llvm.lifetime.end.p0(i64 72, ptr nonnull %7) #32
  ret ptr %16
}